target datalayout = "e-m:e-p270:32:32-p271:32:32-p272:64:64-i64:64-i128:128-f80:128-n8:16:32:64-S128"
target triple = "x86_64-pc-linux-gnu"

%union.anon.1 = type { i64 }

@.str.1 = private unnamed_addr constant [10 x i8] c"plancat.c\00", align 1
@.str.9 = private unnamed_addr constant [36 x i8] c"invalid restriction selectivity: %f\00", align 1
@__func__.restriction_selectivity = private unnamed_addr constant [24 x i8] c"restriction_selectivity\00", align 1

; Function Attrs: inlinehint nounwind uwtable
define internal i64 @DatumGetInt64(i64 noundef %0) #4 {
  %2 = alloca i64, align 8
  store i64 %0, ptr %2, align 8
  %3 = load i64, ptr %2, align 8
  ret i64 %3
}

; Function Attrs: inlinehint nounwind uwtable
define internal double @DatumGetFloat8(i64 noundef %0) #4 {
  %2 = alloca i64, align 8
  %3 = alloca %union.anon.1, align 8
  store i64 %0, ptr %2, align 8
  call void @llvm.lifetime.start.p0(i64 8, ptr %3) #10
  %4 = load i64, ptr %2, align 8
  %5 = call i64 @DatumGetInt64(i64 noundef %4)
  store i64 %5, ptr %3, align 8
  %6 = load double, ptr %3, align 8
  call void @llvm.lifetime.end.p0(i64 8, ptr %3) #10
  ret double %6
}

; Function Attrs: inlinehint nounwind uwtable
define internal i64 @Int32GetDatum(i32 noundef %0) #4 {
  %2 = alloca i32, align 4
  store i32 %0, ptr %2, align 4
  %3 = load i32, ptr %2, align 4
  %4 = sext i32 %3 to i64
  ret i64 %4
}

; Function Attrs: inlinehint nounwind uwtable
define internal i64 @ObjectIdGetDatum(i32 noundef %0) #4 {
  %2 = alloca i32, align 4
  store i32 %0, ptr %2, align 4
  %3 = load i32, ptr %2, align 4
  %4 = zext i32 %3 to i64
  ret i64 %4
}

; Function Attrs: inlinehint nounwind uwtable
define internal i64 @PointerGetDatum(ptr noundef %0) #4 {
  %2 = alloca ptr, align 8
  store ptr %0, ptr %2, align 8
  %3 = load ptr, ptr %2, align 8
  %4 = ptrtoint ptr %3 to i64
  ret i64 %4
}

; Function Attrs: nounwind uwtable
define dso_local double @restriction_selectivity(ptr noundef %0, i32 noundef %1, ptr noundef %2, i32 noundef %3, i32 noundef %4) #0 {
  %6 = alloca double, align 8
  %7 = alloca ptr, align 8
  %8 = alloca i32, align 4
  %9 = alloca ptr, align 8
  %10 = alloca i32, align 4
  %11 = alloca i32, align 4
  %12 = alloca i32, align 4
  %13 = alloca double, align 8
  %14 = alloca i32, align 4
  store ptr %0, ptr %7, align 8
  store i32 %1, ptr %8, align 4
  store ptr %2, ptr %9, align 8
  store i32 %3, ptr %10, align 4
  store i32 %4, ptr %11, align 4
  call void @llvm.lifetime.start.p0(i64 4, ptr %12) #10
  %15 = load i32, ptr %8, align 4
  %16 = call i32 @get_oprrest(i32 noundef %15)
  store i32 %16, ptr %12, align 4
  call void @llvm.lifetime.start.p0(i64 8, ptr %13) #10
  %17 = load i32, ptr %12, align 4
  %18 = icmp ne i32 %17, 0
  br i1 %18, label %20, label %19

19:                                               ; preds = %5
  store double 5.000000e-01, ptr %6, align 8
  store i32 1, ptr %14, align 4
  br label %52

20:                                               ; preds = %5
  %21 = load i32, ptr %12, align 4
  %22 = load i32, ptr %10, align 4
  %23 = load ptr, ptr %7, align 8
  %24 = call i64 @PointerGetDatum(ptr noundef %23)
  %25 = load i32, ptr %8, align 4
  %26 = call i64 @ObjectIdGetDatum(i32 noundef %25)
  %27 = load ptr, ptr %9, align 8
  %28 = call i64 @PointerGetDatum(ptr noundef %27)
  %29 = load i32, ptr %11, align 4
  %30 = call i64 @Int32GetDatum(i32 noundef %29)
  %31 = call i64 @OidFunctionCall4Coll(i32 noundef %21, i32 noundef %22, i64 noundef %24, i64 noundef %26, i64 noundef %28, i64 noundef %30)
  %32 = call double @DatumGetFloat8(i64 noundef %31)
  store double %32, ptr %13, align 8
  %33 = load double, ptr %13, align 8
  %34 = fcmp olt double %33, 0.000000e+00
  br i1 %34, label %38, label %35

35:                                               ; preds = %20
  %36 = load double, ptr %13, align 8
  %37 = fcmp ogt double %36, 1.000000e+00
  br i1 %37, label %38, label %50

38:                                               ; preds = %35, %20
  br label %39

39:                                               ; preds = %38
  br i1 true, label %40, label %42

40:                                               ; preds = %39
  %41 = call zeroext i1 @errstart_cold(i32 noundef 21, ptr noundef null) #11
  br i1 %41, label %44, label %47

42:                                               ; preds = %39
  %43 = call zeroext i1 @errstart(i32 noundef 21, ptr noundef null)
  br i1 %43, label %44, label %47

44:                                               ; preds = %42, %40
  %45 = load double, ptr %13, align 8
  %46 = call i32 (ptr, ...) @errmsg_internal(ptr noundef @.str.9, double noundef %45)
  call void @errfinish(ptr noundef @.str.1, i32 noundef 1991, ptr noundef @__func__.restriction_selectivity)
  br label %47

47:                                               ; preds = %44, %42, %40
  unreachable

48:                                               ; No predecessors!
  br label %49

49:                                               ; preds = %48
  br label %50

50:                                               ; preds = %49, %35
  %51 = load double, ptr %13, align 8
  store double %51, ptr %6, align 8
  store i32 1, ptr %14, align 4
  br label %52

52:                                               ; preds = %50, %19
  call void @llvm.lifetime.end.p0(i64 8, ptr %13) #10
  call void @llvm.lifetime.end.p0(i64 4, ptr %12) #10
  %53 = load double, ptr %6, align 8
  ret double %53
}