; Function Attrs: nounwind uwtable
define dso_local double @restriction_selectivity(ptr noundef %0, i32 noundef %1, ptr noundef %2, i32 noundef %3, i32 noundef %4) local_unnamed_addr #0 {
  %6 = tail call i32 @get_oprrest(i32 noundef %1) #10
  %.not = icmp eq i32 %6, 0
  br i1 %.not, label %19, label %7

7:                                                ; preds = %5
  %8 = ptrtoint ptr %0 to i64
  %9 = zext i32 %1 to i64
  %10 = ptrtoint ptr %2 to i64
  %11 = sext i32 %4 to i64
  %12 = tail call i64 @OidFunctionCall4Coll(i32 noundef %6, i32 noundef %3, i64 noundef %8, i64 noundef %9, i64 noundef %10, i64 noundef %11) #10
  %13 = bitcast i64 %12 to double
  %14 = fcmp olt double %13, 0.000000e+00
  %15 = fcmp ogt double %13, 1.000000e+00
  %or.cond = or i1 %14, %15
  br i1 %or.cond, label %16, label %19

16:                                               ; preds = %7
  %17 = tail call zeroext i1 @errstart_cold(i32 noundef 21, ptr noundef null) #11
  tail call void @llvm.assume(i1 %17)
  %18 = tail call i32 (ptr, ...) @errmsg_internal(ptr noundef nonnull @.str.9, double noundef %13) #10
  tail call void @errfinish(ptr noundef nonnull @.str.1, i32 noundef 1991, ptr noundef nonnull @__func__.restriction_selectivity) #10
  unreachable

19:                                               ; preds = %7, %5
  %.0 = phi double [ 5.000000e-01, %5 ], [ %13, %7 ]
  ret double %.0
}